(dp0
S'n_estimators'
p1
I200
sS'min_samples_split'
p2
I2
sS'min_weight_fraction_leaf'
p3
F0.0
sS'criterion'
p4
S'gini'
p5
sS'max_features'
p6
S'sqrt'
p7
sS'min_impurity_split'
p8
F1e-06
sS'max_depth'
p9
NsS'min_samples_leaf'
p10
I1
s.
