(dp0
S'n_estimators'
p1
I200
sS'min_samples_split'
p2
F0.1
sS'min_weight_fraction_leaf'
p3
F0.0
sS'criterion'
p4
S'friedman_mse'
p5
sS'max_features'
p6
S'sqrt'
p7
sS'min_impurity_split'
p8
F1e-06
sS'learning_rate'
p9
F0.1
sS'max_depth'
p10
I10
sS'min_samples_leaf'
p11
I1
s.
