ccopy_reg
_reconstructor
p0
(csklearn.decomposition.pca
PCA
p1
c__builtin__
object
p2
Ntp3
Rp4
(dp5
S'svd_solver'
p6
S'auto'
p7
sS'iterated_power'
p8
g7
sS'random_state'
p9
NsS'_sklearn_version'
p10
S'0.18.2'
p11
sS'whiten'
p12
I01
sS'tol'
p13
F0.0
sS'copy'
p14
I01
sS'n_components'
p15
Nsb.
